; ModuleID = '31/486.c'
source_filename = "31/486.c"
target datalayout = "e-m:e-p270:32:32-p271:32:32-p272:64:64-i64:64-f80:128-n8:16:32:64-S128"
target triple = "x86_64-pc-linux-gnu"

%struct.stu = type { [10000 x i8], %struct.stu* }

@.str = private unnamed_addr constant [5 x i8] c"end\00\00", align 1
@.str.1 = private unnamed_addr constant [3 x i8] c"%d\00", align 1

; Function Attrs: noinline nounwind uwtable
define dso_local i32 @main() #0 {
  %1 = alloca i32, align 4
  %2 = alloca i64, align 8
  %3 = alloca i64, align 8
  %4 = alloca i64, align 8
  %5 = alloca i64, align 8
  %6 = alloca i64, align 8
  %7 = alloca i64, align 8
  %8 = alloca %struct.stu*, align 8
  %9 = alloca %struct.stu*, align 8
  store i32 0, i32* %1, align 4
  %10 = call noalias i8* @malloc(i64 100) #4
  %11 = bitcast i8* %10 to %struct.stu*
  store %struct.stu* %11, %struct.stu** %8, align 8
  store %struct.stu* %11, %struct.stu** %9, align 8
  store %struct.stu* null, %struct.stu** %9, align 8
  br label %12

12:                                               ; preds = %0, %29
  %13 = call noalias i8* @malloc(i64 100) #4
  %14 = bitcast i8* %13 to %struct.stu*
  store %struct.stu* %14, %struct.stu** %8, align 8
  %15 = load %struct.stu*, %struct.stu** %8, align 8
  %16 = getelementptr inbounds %struct.stu, %struct.stu* %15, i32 0, i32 0
  %17 = getelementptr inbounds [10000 x i8], [10000 x i8]* %16, i64 0, i64 0
  %18 = call i32 (i8*, ...) bitcast (i32 (...)* @gets to i32 (i8*, ...)*)(i8* %17)
  %19 = load %struct.stu*, %struct.stu** %9, align 8
  %20 = load %struct.stu*, %struct.stu** %8, align 8
  %21 = getelementptr inbounds %struct.stu, %struct.stu* %20, i32 0, i32 1
  store %struct.stu* %19, %struct.stu** %21, align 8
  %22 = load %struct.stu*, %struct.stu** %8, align 8
  store %struct.stu* %22, %struct.stu** %9, align 8
  %23 = load %struct.stu*, %struct.stu** %8, align 8
  %24 = getelementptr inbounds %struct.stu, %struct.stu* %23, i32 0, i32 0
  %25 = getelementptr inbounds [10000 x i8], [10000 x i8]* %24, i64 0, i64 0
  %26 = call i32 @strcmp(i8* %25, i8* getelementptr inbounds ([5 x i8], [5 x i8]* @.str, i64 0, i64 0)) #5
  %27 = icmp eq i32 %26, 0
  br i1 %27, label %28, label %29

28:                                               ; preds = %12
  br label %30

29:                                               ; preds = %12
  br label %12

30:                                               ; preds = %28
  %31 = load %struct.stu*, %struct.stu** %8, align 8
  %32 = getelementptr inbounds %struct.stu, %struct.stu* %31, i32 0, i32 1
  %33 = load %struct.stu*, %struct.stu** %32, align 8
  store %struct.stu* %33, %struct.stu** %8, align 8
  br label %34

34:                                               ; preds = %37, %30
  %35 = load %struct.stu*, %struct.stu** %8, align 8
  %36 = icmp ne %struct.stu* %35, null
  br i1 %36, label %37, label %45

37:                                               ; preds = %34
  %38 = load %struct.stu*, %struct.stu** %8, align 8
  %39 = getelementptr inbounds %struct.stu, %struct.stu* %38, i32 0, i32 0
  %40 = getelementptr inbounds [10000 x i8], [10000 x i8]* %39, i64 0, i64 0
  %41 = call i32 @puts(i8* %40)
  %42 = load %struct.stu*, %struct.stu** %8, align 8
  %43 = getelementptr inbounds %struct.stu, %struct.stu* %42, i32 0, i32 1
  %44 = load %struct.stu*, %struct.stu** %43, align 8
  store %struct.stu* %44, %struct.stu** %8, align 8
  br label %34

45:                                               ; preds = %34
  %46 = call i32 (i8*, ...) @__isoc99_scanf(i8* getelementptr inbounds ([3 x i8], [3 x i8]* @.str.1, i64 0, i64 0), i64* %2)
  %47 = load i32, i32* %1, align 4
  ret i32 %47
}

; Function Attrs: nounwind
declare dso_local noalias i8* @malloc(i64) #1

declare dso_local i32 @gets(...) #2

; Function Attrs: nounwind readonly
declare dso_local i32 @strcmp(i8*, i8*) #3

declare dso_local i32 @puts(i8*) #2

declare dso_local i32 @__isoc99_scanf(i8*, ...) #2


!llvm.module.flags = !{!0}
!llvm.ident = !{!1}

!0 = !{i32 1, !"wchar_size", i32 4}
!1 = !{!"clang version 10.0.0-4ubuntu1 "}
