; ModuleID = 'source-C-CXX/30/486.c'
source_filename = "source-C-CXX/30/486.c"
target datalayout = "e-m:e-p270:32:32-p271:32:32-p272:64:64-i64:64-f80:128-n8:16:32:64-S128"
target triple = "x86_64-pc-linux-gnu"

%struct.stu = type { [10000 x i8], %struct.stu* }

@.str = private unnamed_addr constant [5 x i8] c"end\00\00", align 1
@.str.1 = private unnamed_addr constant [3 x i8] c"%d\00", align 1

; Function Attrs: nounwind sspstrong uwtable
define dso_local i32 @main() local_unnamed_addr #0 {
  %1 = alloca i64, align 8
  %2 = bitcast i64* %1 to i8*
  call void @llvm.lifetime.start.p0i8(i64 8, i8* nonnull %2) #6
  br label %3

3:                                                ; preds = %3, %0
  %4 = phi %struct.stu* [ null, %0 ], [ %6, %3 ]
  %5 = tail call noalias align 16 dereferenceable_or_null(100) i8* @malloc(i64 100) #6
  %6 = bitcast i8* %5 to %struct.stu*
  %7 = getelementptr inbounds %struct.stu, %struct.stu* %6, i64 0, i32 0, i64 0
  %8 = tail call i32 (i8*, ...) bitcast (i32 (...)* @gets to i32 (i8*, ...)*)(i8* %7) #6
  %9 = getelementptr inbounds %struct.stu, %struct.stu* %6, i64 0, i32 1
  store %struct.stu* %4, %struct.stu** %9, align 16, !tbaa !5
  %10 = tail call i32 @strcmp(i8* noundef nonnull dereferenceable(1) %7, i8* noundef nonnull dereferenceable(4) getelementptr inbounds ([5 x i8], [5 x i8]* @.str, i64 0, i64 0)) #7
  %11 = icmp eq i32 %10, 0
  br i1 %11, label %12, label %3

12:                                               ; preds = %3
  %13 = icmp eq %struct.stu* %4, null
  br i1 %13, label %21, label %14

14:                                               ; preds = %12, %14
  %15 = phi %struct.stu* [ %19, %14 ], [ %4, %12 ]
  %16 = getelementptr inbounds %struct.stu, %struct.stu* %15, i64 0, i32 0, i64 0
  %17 = tail call i32 @puts(i8* nonnull %16)
  %18 = getelementptr inbounds %struct.stu, %struct.stu* %15, i64 0, i32 1
  %19 = load %struct.stu*, %struct.stu** %18, align 8, !tbaa !5
  %20 = icmp eq %struct.stu* %19, null
  br i1 %20, label %21, label %14, !llvm.loop !10

21:                                               ; preds = %14, %12
  %22 = call i32 (i8*, ...) @__isoc99_scanf(i8* getelementptr inbounds ([3 x i8], [3 x i8]* @.str.1, i64 0, i64 0), i64* nonnull %1)
  call void @llvm.lifetime.end.p0i8(i64 8, i8* nonnull %2) #6
  ret i32 0
}

; Function Attrs: argmemonly mustprogress nofree nosync nounwind willreturn
declare void @llvm.lifetime.start.p0i8(i64 immarg, i8* nocapture) #1

; Function Attrs: inaccessiblememonly mustprogress nofree nounwind willreturn
declare noalias noundef align 16 i8* @malloc(i64 noundef) local_unnamed_addr #2

declare i32 @gets(...) local_unnamed_addr #3

; Function Attrs: argmemonly mustprogress nofree nounwind readonly willreturn
declare i32 @strcmp(i8* nocapture, i8* nocapture) local_unnamed_addr #4

; Function Attrs: nofree nounwind
declare noundef i32 @puts(i8* nocapture noundef readonly) local_unnamed_addr #5

; Function Attrs: nofree nounwind
declare noundef i32 @__isoc99_scanf(i8* nocapture noundef readonly, ...) local_unnamed_addr #5

; Function Attrs: argmemonly mustprogress nofree nosync nounwind willreturn
declare void @llvm.lifetime.end.p0i8(i64 immarg, i8* nocapture) #1


!llvm.module.flags = !{!0, !1, !2, !3}
!llvm.ident = !{!4}

!0 = !{i32 1, !"wchar_size", i32 4}
!1 = !{i32 7, !"PIC Level", i32 2}
!2 = !{i32 7, !"PIE Level", i32 2}
!3 = !{i32 7, !"uwtable", i32 1}
!4 = !{!"clang version 13.0.0"}
!5 = !{!6, !9, i64 10000}
!6 = !{!"stu", !7, i64 0, !9, i64 10000}
!7 = !{!"omnipotent char", !8, i64 0}
!8 = !{!"Simple C/C++ TBAA"}
!9 = !{!"any pointer", !7, i64 0}
!10 = distinct !{!10, !11}
!11 = !{!"llvm.loop.mustprogress"}
